; Function Attrs: mustprogress nofree norecurse nosync nounwind willreturn memory(readwrite, inaccessiblemem: none) uwtable
define hidden void @_ZN16NullCheckVisitor9do_InvokeEP6Invoke(ptr nocapture noundef nonnull readonly align 8 dereferenceable(16) %0, ptr nocapture noundef readonly %1) unnamed_addr #4 align 2 {
  %3 = getelementptr inbounds i8, ptr %0, i64 8
  %4 = load ptr, ptr %3, align 8
  %5 = getelementptr inbounds i8, ptr %1, i64 112
  %6 = load ptr, ptr %5, align 8
  %.not.i = icmp eq ptr %6, null
  br i1 %.not.i, label %_ZN19NullCheckEliminator13handle_InvokeEP6Invoke.exit, label %7

7:                                                ; preds = %2
  %8 = getelementptr inbounds i8, ptr %4, i64 32
  %9 = load ptr, ptr %8, align 8
  %10 = getelementptr inbounds i8, ptr %6, i64 8
  %11 = load i32, ptr %10, align 8
  %12 = sext i32 %11 to i64
  %13 = load ptr, ptr %9, align 8
  %14 = lshr i64 %12, 6
  %15 = getelementptr inbounds i64, ptr %13, i64 %14
  %16 = load i64, ptr %15, align 8
  %17 = and i64 %12, 63
  %18 = shl nuw i64 1, %17
  %19 = and i64 %18, %16
  %.not5.i = icmp eq i64 %19, 0
  br i1 %.not5.i, label %20, label %_ZN19NullCheckEliminator13handle_InvokeEP6Invoke.exit

20:                                               ; preds = %7
  %21 = or i64 %18, %16
  store i64 %21, ptr %15, align 8
  br label %_ZN19NullCheckEliminator13handle_InvokeEP6Invoke.exit

_ZN19NullCheckEliminator13handle_InvokeEP6Invoke.exit: ; preds = %2, %7, %20
  %22 = getelementptr inbounds i8, ptr %4, i64 80
  store ptr null, ptr %22, align 8
  ret void
}